target datalayout = "e-m:e-p270:32:32-p271:32:32-p272:64:64-i64:64-i128:128-f80:128-n8:16:32:64-S128"
target triple = "x86_64-pc-linux-gnu"

%"class.icu_77::PatternMap" = type <{ ptr, [52 x ptr], i8, [7 x i8] }>

; Function Attrs: mustprogress nounwind uwtable
define noundef ptr @_ZNK6icu_7710PatternMap9getHeaderEDs(ptr noundef nonnull align 8 dereferenceable(425) %0, i16 noundef zeroext %1) #0 align 2 {
  %3 = alloca ptr, align 8
  %4 = alloca ptr, align 8
  %5 = alloca i16, align 2
  %6 = alloca ptr, align 8
  %7 = alloca i32, align 4
  store ptr %0, ptr %4, align 8, !tbaa !74
  store i16 %1, ptr %5, align 2, !tbaa !104
  %8 = load ptr, ptr %4, align 8
  call void @llvm.lifetime.start.p0(i64 8, ptr %6) #13
  %9 = load i16, ptr %5, align 2, !tbaa !104
  %10 = zext i16 %9 to i32
  %11 = icmp sge i32 %10, 65
  br i1 %11, label %12, label %24

12:                                               ; preds = %2
  %13 = load i16, ptr %5, align 2, !tbaa !104
  %14 = zext i16 %13 to i32
  %15 = icmp sle i32 %14, 90
  br i1 %15, label %16, label %24

16:                                               ; preds = %12
  %17 = getelementptr inbounds nuw %"class.icu_77::PatternMap", ptr %8, i32 0, i32 1
  %18 = load i16, ptr %5, align 2, !tbaa !104
  %19 = zext i16 %18 to i32
  %20 = sub nsw i32 %19, 65
  %21 = sext i32 %20 to i64
  %22 = getelementptr inbounds [52 x ptr], ptr %17, i64 0, i64 %21
  %23 = load ptr, ptr %22, align 8, !tbaa !77
  store ptr %23, ptr %6, align 8, !tbaa !77
  br label %43

24:                                               ; preds = %12, %2
  %25 = load i16, ptr %5, align 2, !tbaa !104
  %26 = zext i16 %25 to i32
  %27 = icmp sge i32 %26, 97
  br i1 %27, label %28, label %41

28:                                               ; preds = %24
  %29 = load i16, ptr %5, align 2, !tbaa !104
  %30 = zext i16 %29 to i32
  %31 = icmp sle i32 %30, 122
  br i1 %31, label %32, label %41

32:                                               ; preds = %28
  %33 = getelementptr inbounds nuw %"class.icu_77::PatternMap", ptr %8, i32 0, i32 1
  %34 = load i16, ptr %5, align 2, !tbaa !104
  %35 = zext i16 %34 to i32
  %36 = add nsw i32 26, %35
  %37 = sub nsw i32 %36, 97
  %38 = sext i32 %37 to i64
  %39 = getelementptr inbounds [52 x ptr], ptr %33, i64 0, i64 %38
  %40 = load ptr, ptr %39, align 8, !tbaa !77
  store ptr %40, ptr %6, align 8, !tbaa !77
  br label %42

41:                                               ; preds = %28, %24
  store ptr null, ptr %3, align 8
  store i32 1, ptr %7, align 4
  br label %45

42:                                               ; preds = %32
  br label %43

43:                                               ; preds = %42, %16
  %44 = load ptr, ptr %6, align 8, !tbaa !77
  store ptr %44, ptr %3, align 8
  store i32 1, ptr %7, align 4
  br label %45

45:                                               ; preds = %43, %41
  call void @llvm.lifetime.end.p0(i64 8, ptr %6) #13
  %46 = load ptr, ptr %3, align 8
  ret ptr %46
}