; Function Attrs: mustprogress nofree norecurse nosync nounwind willreturn memory(argmem: read) uwtable
define noundef ptr @_ZNK6icu_7710PatternMap9getHeaderEDs(ptr noundef nonnull readonly align 8 captures(none) dereferenceable(425) %0, i16 noundef zeroext %1) local_unnamed_addr #18 align 2 {
  %3 = zext i16 %1 to i64
  %4 = add i16 %1, -65
  %or.cond = icmp ult i16 %4, 26
  br i1 %or.cond, label %7, label %5

5:                                                ; preds = %2
  %6 = add i16 %1, -97
  %or.cond5 = icmp ult i16 %6, 26
  br i1 %or.cond5, label %7, label %12

7:                                                ; preds = %5, %2
  %.sink17 = phi i64 [ 4294967231, %2 ], [ 4294967225, %5 ]
  %8 = getelementptr inbounds nuw i8, ptr %0, i64 8
  %9 = add nuw nsw i64 %.sink17, %3
  %10 = and i64 %9, 4294967295
  %11 = getelementptr inbounds nuw [52 x ptr], ptr %8, i64 0, i64 %10
  %.0 = load ptr, ptr %11, align 8, !tbaa !53
  br label %12

12:                                               ; preds = %5, %7
  %.013 = phi ptr [ %.0, %7 ], [ null, %5 ]
  ret ptr %.013
}